target datalayout = "e-m:e-p270:32:32-p271:32:32-p272:64:64-i64:64-i128:128-f80:128-n8:16:32:64-S128"
target triple = "x86_64-pc-linux-gnu"

%struct.evp_cipher_ctx_st = type { ptr, ptr, ptr, i32, i32, i32, [16 x i8], [16 x i8], [32 x i8], i32, i32, i32, i32, [32 x i8] }

; Function Attrs: nounwind uwtable
define hidden i32 @EVP_CIPHER_CTX_set_padding(ptr noundef %0, i32 noundef %1) #0 {
  %3 = alloca ptr, align 8
  %4 = alloca i32, align 4
  store ptr %0, ptr %3, align 8, !tbaa !10
  store i32 %1, ptr %4, align 4, !tbaa !6
  %5 = load i32, ptr %4, align 4, !tbaa !6
  %6 = icmp ne i32 %5, 0
  br i1 %6, label %7, label %12

7:                                                ; preds = %2
  %8 = load ptr, ptr %3, align 8, !tbaa !10
  %9 = getelementptr inbounds nuw %struct.evp_cipher_ctx_st, ptr %8, i32 0, i32 5
  %10 = load i32, ptr %9, align 8, !tbaa !30
  %11 = and i32 %10, -2049
  store i32 %11, ptr %9, align 8, !tbaa !30
  br label %17

12:                                               ; preds = %2
  %13 = load ptr, ptr %3, align 8, !tbaa !10
  %14 = getelementptr inbounds nuw %struct.evp_cipher_ctx_st, ptr %13, i32 0, i32 5
  %15 = load i32, ptr %14, align 8, !tbaa !30
  %16 = or i32 %15, 2048
  store i32 %16, ptr %14, align 8, !tbaa !30
  br label %17

17:                                               ; preds = %12, %7
  ret i32 1
}